target datalayout = "e-m:e-p270:32:32-p271:32:32-p272:64:64-i64:64-i128:128-f80:128-n8:16:32:64-S128"
target triple = "x86_64-pc-linux-gnu"

%struct.Wayland_SHMBuffer = type { ptr, ptr, i32 }

@WAYLAND_wl_proxy_marshal_flags = external global ptr, align 8
@WAYLAND_wl_proxy_get_version = external global ptr, align 8

; Function Attrs: inlinehint nounwind uwtable
define internal void @wl_buffer_destroy(ptr noundef %0) #4 {
  %2 = alloca ptr, align 8
  store ptr %0, ptr %2, align 8
  %3 = load ptr, ptr @WAYLAND_wl_proxy_marshal_flags, align 8
  %4 = load ptr, ptr %2, align 8
  %5 = load ptr, ptr @WAYLAND_wl_proxy_get_version, align 8
  %6 = load ptr, ptr %2, align 8
  %7 = call i32 %5(ptr noundef %6)
  %8 = call ptr (ptr, i32, ptr, i32, i32, ...) %3(ptr noundef %4, i32 noundef 0, ptr noundef null, i32 noundef %7, i32 noundef 1)
  ret void
}

; Function Attrs: nounwind uwtable
define hidden void @Wayland_ReleaseSHMBuffer(ptr noundef %0) #0 {
  %2 = alloca ptr, align 8
  store ptr %0, ptr %2, align 8
  %3 = load ptr, ptr %2, align 8
  %4 = icmp ne ptr %3, null
  br i1 %4, label %5, label %35

5:                                                ; preds = %1
  %6 = load ptr, ptr %2, align 8
  %7 = getelementptr inbounds nuw %struct.Wayland_SHMBuffer, ptr %6, i32 0, i32 0
  %8 = load ptr, ptr %7, align 8
  %9 = icmp ne ptr %8, null
  br i1 %9, label %10, label %16

10:                                               ; preds = %5
  %11 = load ptr, ptr %2, align 8
  %12 = getelementptr inbounds nuw %struct.Wayland_SHMBuffer, ptr %11, i32 0, i32 0
  %13 = load ptr, ptr %12, align 8
  call void @wl_buffer_destroy(ptr noundef %13)
  %14 = load ptr, ptr %2, align 8
  %15 = getelementptr inbounds nuw %struct.Wayland_SHMBuffer, ptr %14, i32 0, i32 0
  store ptr null, ptr %15, align 8
  br label %16

16:                                               ; preds = %10, %5
  %17 = load ptr, ptr %2, align 8
  %18 = getelementptr inbounds nuw %struct.Wayland_SHMBuffer, ptr %17, i32 0, i32 1
  %19 = load ptr, ptr %18, align 8
  %20 = icmp ne ptr %19, null
  br i1 %20, label %21, label %32

21:                                               ; preds = %16
  %22 = load ptr, ptr %2, align 8
  %23 = getelementptr inbounds nuw %struct.Wayland_SHMBuffer, ptr %22, i32 0, i32 1
  %24 = load ptr, ptr %23, align 8
  %25 = load ptr, ptr %2, align 8
  %26 = getelementptr inbounds nuw %struct.Wayland_SHMBuffer, ptr %25, i32 0, i32 2
  %27 = load i32, ptr %26, align 8
  %28 = sext i32 %27 to i64
  %29 = call i32 @munmap(ptr noundef %24, i64 noundef %28) #6
  %30 = load ptr, ptr %2, align 8
  %31 = getelementptr inbounds nuw %struct.Wayland_SHMBuffer, ptr %30, i32 0, i32 1
  store ptr null, ptr %31, align 8
  br label %32

32:                                               ; preds = %21, %16
  %33 = load ptr, ptr %2, align 8
  %34 = getelementptr inbounds nuw %struct.Wayland_SHMBuffer, ptr %33, i32 0, i32 2
  store i32 0, ptr %34, align 8
  br label %35

35:                                               ; preds = %32, %1
  ret void
}