; Function Attrs: nounwind uwtable
define hidden void @Wayland_ReleaseSHMBuffer(ptr noundef captures(address_is_null) %0) local_unnamed_addr #0 {
  %.not = icmp eq ptr %0, null
  br i1 %.not, label %19, label %2

2:                                                ; preds = %1
  %3 = load ptr, ptr %0, align 8
  %.not11 = icmp eq ptr %3, null
  br i1 %.not11, label %9, label %4

4:                                                ; preds = %2
  %5 = load ptr, ptr @WAYLAND_wl_proxy_marshal_flags, align 8
  %6 = load ptr, ptr @WAYLAND_wl_proxy_get_version, align 8
  %7 = tail call i32 %6(ptr noundef nonnull %3) #7
  %8 = tail call ptr (ptr, i32, ptr, i32, i32, ...) %5(ptr noundef nonnull %3, i32 noundef 0, ptr noundef null, i32 noundef %7, i32 noundef 1) #7
  store ptr null, ptr %0, align 8
  br label %9

9:                                                ; preds = %4, %2
  %10 = getelementptr inbounds nuw i8, ptr %0, i64 8
  %11 = load ptr, ptr %10, align 8
  %.not12 = icmp eq ptr %11, null
  br i1 %.not12, label %17, label %12

12:                                               ; preds = %9
  %13 = getelementptr inbounds nuw i8, ptr %0, i64 16
  %14 = load i32, ptr %13, align 8
  %15 = sext i32 %14 to i64
  %16 = tail call i32 @munmap(ptr noundef nonnull %11, i64 noundef %15) #7
  store ptr null, ptr %10, align 8
  br label %17

17:                                               ; preds = %12, %9
  %18 = getelementptr inbounds nuw i8, ptr %0, i64 16
  store i32 0, ptr %18, align 8
  br label %19

19:                                               ; preds = %17, %1
  ret void
}